(dp1
I7
(I1
I0
tp2
sI8
(I0
I0
tp3
sI9
(I0
I0
tp4
sI10
(I5
I0
tp5
sI11
(I5
I0
tp6
sI12
(I4
I0
tp7
sI13
(I4
I0
tp8
sI14
(I3
I0
tp9
sI15
(I3
I0
tp10
sI16
(I2
I0
tp11
sI17
(I2
I0
tp12
sI18
(I1
I0
tp13
sI19
(I1
I0
tp14
sI20
(I0
I4
tp15
sI21
(I0
I0
tp16
sI22
(I0
I0
tp17
sI23
(I5
I4
tp18
sI24
(I5
I0
tp19
sI25
(I5
I0
tp20
sI26
(I4
I4
tp21
sI27
(I4
I0
tp22
sI28
(I4
I0
tp23
sI29
(I3
I4
tp24
sI30
(I3
I0
tp25
sI31
(I3
I0
tp26
sI32
(I2
I4
tp27
sI33
(I2
I0
tp28
sI34
(I2
I0
tp29
sI35
(I1
I4
tp30
sI36
(I1
I0
tp31
sI37
(I1
I0
tp32
sI38
(I0
I4
tp33
sI39
(I0
I4
tp34
sI40
(I0
I0
tp35
sI41
(I0
I0
tp36
sI42
(I5
I4
tp37
sI43
(I5
I4
tp38
sI44
(I5
I0
tp39
sI45
(I5
I0
tp40
sI46
(I4
I4
tp41
sI47
(I4
I4
tp42
sI48
(I4
I0
tp43
sI49
(I4
I0
tp44
sI50
(I3
I4
tp45
sI51
(I3
I4
tp46
sI52
(I3
I0
tp47
sI53
(I3
I0
tp48
sI54
(I2
I4
tp49
sI55
(I2
I4
tp50
sI56
(I2
I0
tp51
sI57
(I2
I0
tp52
sI58
(I1
I4
tp53
sI59
(I1
I4
tp54
sI60
(I1
I0
tp55
sI61
(I1
I1
tp56
sI62
(I0
I8
tp57
sI63
(I0
I4
tp58
sI64
(I0
I4
tp59
sI65
(I0
I1
tp60
sI66
(I0
I1
tp61
sI67
(I5
I8
tp62
sI68
(I5
I4
tp63
sI69
(I5
I4
tp64
sI70
(I5
I1
tp65
sI71
(I5
I1
tp66
sI72
(I4
I8
tp67
sI73
(I4
I4
tp68
sI74
(I4
I4
tp69
sI75
(I4
I1
tp70
sI76
(I4
I1
tp71
sI77
(I3
I8
tp72
sI78
(I3
I4
tp73
sI79
(I3
I4
tp74
sI80
(I3
I1
tp75
sI81
(I3
I1
tp76
sI82
(I2
I8
tp77
sI83
(I2
I4
tp78
sI84
(I2
I4
tp79
sI85
(I2
I1
tp80
sI86
(I2
I1
tp81
sI87
(I1
I8
tp82
sI88
(I1
I4
tp83
sI89
(I1
I4
tp84
sI90
(I1
I1
tp85
sI91
(I1
I1
tp86
sI92
(I0
I8
tp87
sI93
(I0
I8
tp88
sI94
(I0
I4
tp89
sI95
(I0
I5
tp90
sI96
(I0
I1
tp91
sI97
(I0
I1
tp92
sI98
(I5
I8
tp93
sI99
(I5
I8
tp94
sI100
(I5
I4
tp95
sI101
(I5
I5
tp96
sI102
(I5
I1
tp97
sI103
(I5
I1
tp98
sI104
(I4
I8
tp99
sI105
(I4
I8
tp100
sI106
(I4
I4
tp101
sI107
(I4
I5
tp102
sI108
(I4
I1
tp103
sI109
(I4
I1
tp104
sI110
(I3
I8
tp105
sI111
(I3
I8
tp106
sI112
(I3
I4
tp107
sI113
(I3
I5
tp108
sI114
(I3
I1
tp109
sI115
(I3
I1
tp110
sI116
(I2
I8
tp111
sI117
(I2
I8
tp112
sI118
(I2
I4
tp113
sI119
(I2
I5
tp114
sI120
(I2
I1
tp115
sI121
(I2
I1
tp116
sI122
(I1
I8
tp117
sI123
(I1
I8
tp118
sI124
(I1
I4
tp119
sI125
(I1
I5
tp120
sI126
(I1
I1
tp121
sI127
(I1
I1
tp122
sI128
(I0
I11
tp123
sI129
(I0
I8
tp124
sI130
(I0
I8
tp125
sI131
(I0
I5
tp126
sI132
(I0
I5
tp127
sI133
(I0
I1
tp128
sI134
(I0
I1
tp129
sI135
(I5
I11
tp130
sI136
(I5
I8
tp131
sI137
(I5
I8
tp132
sI138
(I5
I5
tp133
sI139
(I5
I5
tp134
sI140
(I5
I1
tp135
sI141
(I5
I1
tp136
sI142
(I4
I11
tp137
sI143
(I4
I8
tp138
sI144
(I4
I8
tp139
sI145
(I4
I5
tp140
sI146
(I4
I5
tp141
sI147
(I4
I1
tp142
sI148
(I4
I1
tp143
sI149
(I3
I11
tp144
sI150
(I3
I8
tp145
sI151
(I3
I8
tp146
sI152
(I3
I5
tp147
sI153
(I3
I5
tp148
sI154
(I3
I1
tp149
sI155
(I3
I1
tp150
sI156
(I2
I11
tp151
sI157
(I2
I8
tp152
sI158
(I2
I8
tp153
sI159
(I2
I5
tp154
sI160
(I2
I5
tp155
sI161
(I2
I1
tp156
sI162
(I2
I1
tp157
sI163
(I1
I11
tp158
sI164
(I1
I8
tp159
sI165
(I1
I8
tp160
sI166
(I1
I5
tp161
sI167
(I1
I5
tp162
sI168
(I1
I1
tp163
sI169
(I1
I2
tp164
sI170
(I0
I11
tp165
sI171
(I0
I11
tp166
sI172
(I0
I8
tp167
sI173
(I0
I9
tp168
sI174
(I0
I5
tp169
sI175
(I0
I5
tp170
sI176
(I0
I2
tp171
sI177
(I0
I2
tp172
sI178
(I5
I11
tp173
sI179
(I5
I11
tp174
sI180
(I5
I8
tp175
sI181
(I5
I9
tp176
sI182
(I5
I5
tp177
sI183
(I5
I5
tp178
sI184
(I5
I2
tp179
sI185
(I5
I2
tp180
sI186
(I4
I11
tp181
sI187
(I4
I11
tp182
sI188
(I4
I8
tp183
sI189
(I4
I9
tp184
sI190
(I4
I5
tp185
sI191
(I4
I5
tp186
sI192
(I4
I2
tp187
sI193
(I4
I2
tp188
sI194
(I3
I11
tp189
sI195
(I3
I11
tp190
sI196
(I3
I8
tp191
sI197
(I3
I9
tp192
sI198
(I3
I5
tp193
sI199
(I3
I5
tp194
sI200
(I3
I2
tp195
sI201
(I3
I2
tp196
sI202
(I2
I11
tp197
sI203
(I2
I11
tp198
sI204
(I2
I8
tp199
sI205
(I2
I9
tp200
sI206
(I2
I5
tp201
sI207
(I2
I5
tp202
sI208
(I2
I2
tp203
sI209
(I2
I2
tp204
sI210
(I1
I11
tp205
sI211
(I1
I11
tp206
sI212
(I1
I8
tp207
sI213
(I1
I9
tp208
sI214
(I1
I5
tp209
sI215
(I1
I5
tp210
sI216
(I1
I2
tp211
sI217
(I1
I2
tp212
sI218
(I0
I14
tp213
sI219
(I0
I11
tp214
sI220
(I0
I11
tp215
sI221
(I0
I9
tp216
sI222
(I0
I9
tp217
sI223
(I0
I5
tp218
sI224
(I0
I6
tp219
sI225
(I0
I2
tp220
sI226
(I0
I2
tp221
sI227
(I5
I14
tp222
sI228
(I5
I11
tp223
sI229
(I5
I11
tp224
sI230
(I5
I9
tp225
sI231
(I5
I9
tp226
sI232
(I5
I5
tp227
sI233
(I5
I6
tp228
sI234
(I5
I2
tp229
sI235
(I5
I2
tp230
sI236
(I4
I14
tp231
sI237
(I4
I11
tp232
sI238
(I4
I11
tp233
sI239
(I4
I9
tp234
sI240
(I4
I9
tp235
sI241
(I4
I5
tp236
sI242
(I4
I6
tp237
sI243
(I4
I2
tp238
sI244
(I4
I2
tp239
sI245
(I3
I14
tp240
sI246
(I3
I11
tp241
sI247
(I3
I11
tp242
sI248
(I3
I9
tp243
sI249
(I3
I9
tp244
sI250
(I3
I5
tp245
sI251
(I3
I6
tp246
sI252
(I3
I2
tp247
sI253
(I3
I2
tp248
sI254
(I2
I14
tp249
sI255
(I2
I11
tp250
sI256
(I2
I11
tp251
sI257
(I2
I9
tp252
sI258
(I2
I9
tp253
sI259
(I2
I5
tp254
sI260
(I2
I6
tp255
sI261
(I2
I2
tp256
sI262
(I2
I2
tp257
sI263
(I1
I14
tp258
sI264
(I1
I11
tp259
sI265
(I1
I11
tp260
sI266
(I1
I9
tp261
sI267
(I1
I9
tp262
sI268
(I1
I5
tp263
sI269
(I1
I6
tp264
sI270
(I1
I2
tp265
sI271
(I1
I2
tp266
sI272
(I0
I14
tp267
sI273
(I0
I14
tp268
sI274
(I0
I11
tp269
sI275
(I0
I12
tp270
sI276
(I0
I9
tp271
sI277
(I0
I9
tp272
sI278
(I0
I6
tp273
sI279
(I0
I6
tp274
sI280
(I0
I2
tp275
sI281
(I0
I2
tp276
sI282
(I5
I14
tp277
sI283
(I5
I14
tp278
sI284
(I5
I11
tp279
sI285
(I5
I12
tp280
sI286
(I5
I9
tp281
sI287
(I5
I9
tp282
sI288
(I5
I6
tp283
sI289
(I5
I6
tp284
sI290
(I5
I2
tp285
sI291
(I5
I2
tp286
sI292
(I4
I14
tp287
sI293
(I4
I14
tp288
sI294
(I4
I11
tp289
sI295
(I4
I12
tp290
sI296
(I4
I9
tp291
sI297
(I4
I9
tp292
sI298
(I4
I6
tp293
sI299
(I4
I6
tp294
sI300
(I4
I2
tp295
sI301
(I4
I2
tp296
sI302
(I3
I14
tp297
sI303
(I3
I14
tp298
sI304
(I3
I11
tp299
sI305
(I3
I12
tp300
sI306
(I3
I9
tp301
sI307
(I3
I9
tp302
sI308
(I3
I6
tp303
sI309
(I3
I6
tp304
sI310
(I3
I2
tp305
sI311
(I3
I2
tp306
sI312
(I2
I14
tp307
sI313
(I2
I14
tp308
sI314
(I2
I11
tp309
sI315
(I2
I12
tp310
sI316
(I2
I9
tp311
sI317
(I2
I9
tp312
sI318
(I2
I6
tp313
sI319
(I2
I6
tp314
sI320
(I2
I2
tp315
sI321
(I2
I2
tp316
sI322
(I1
I14
tp317
sI323
(I1
I14
tp318
sI324
(I1
I11
tp319
sI325
(I1
I12
tp320
sI326
(I1
I9
tp321
sI327
(I1
I9
tp322
sI328
(I1
I6
tp323
sI329
(I1
I6
tp324
sI330
(I1
I2
tp325
sI331
(I1
I3
tp326
sI332
(I0
I16
tp327
sI333
(I0
I14
tp328
sI334
(I0
I14
tp329
sI335
(I0
I12
tp330
sI336
(I0
I12
tp331
sI337
(I0
I9
tp332
sI338
(I0
I10
tp333
sI339
(I0
I6
tp334
sI340
(I0
I6
tp335
sI341
(I0
I3
tp336
sI342
(I0
I3
tp337
sI343
(I5
I16
tp338
sI344
(I5
I14
tp339
sI345
(I5
I14
tp340
sI346
(I5
I12
tp341
sI347
(I5
I12
tp342
sI348
(I5
I9
tp343
sI349
(I5
I10
tp344
sI350
(I5
I6
tp345
sI351
(I5
I6
tp346
sI352
(I5
I3
tp347
sI353
(I5
I3
tp348
sI354
(I4
I16
tp349
sI355
(I4
I14
tp350
sI356
(I4
I14
tp351
sI357
(I4
I12
tp352
sI358
(I4
I12
tp353
sI359
(I4
I9
tp354
sI360
(I4
I10
tp355
sI361
(I4
I6
tp356
sI362
(I4
I6
tp357
sI363
(I4
I3
tp358
sI364
(I4
I3
tp359
sI365
(I3
I16
tp360
sI366
(I3
I14
tp361
sI367
(I3
I14
tp362
sI368
(I3
I12
tp363
sI369
(I3
I12
tp364
sI370
(I3
I9
tp365
sI371
(I3
I10
tp366
sI372
(I3
I6
tp367
sI373
(I3
I6
tp368
sI374
(I3
I3
tp369
sI375
(I3
I3
tp370
sI376
(I2
I16
tp371
sI377
(I2
I14
tp372
sI378
(I2
I14
tp373
sI379
(I2
I12
tp374
sI380
(I2
I12
tp375
sI381
(I2
I9
tp376
sI382
(I2
I10
tp377
sI383
(I2
I6
tp378
sI384
(I2
I6
tp379
sI385
(I2
I3
tp380
sI386
(I2
I3
tp381
sI387
(I1
I16
tp382
sI388
(I1
I14
tp383
sI389
(I1
I14
tp384
sI390
(I1
I12
tp385
sI391
(I1
I12
tp386
sI392
(I1
I9
tp387
sI393
(I1
I10
tp388
sI394
(I1
I6
tp389
sI395
(I1
I6
tp390
sI396
(I1
I3
tp391
sI397
(I1
I3
tp392
sI398
(I0
I16
tp393
sI399
(I0
I16
tp394
sI400
(I0
I14
tp395
sI401
(I0
I15
tp396
sI402
(I0
I12
tp397
sI403
(I0
I12
tp398
sI404
(I0
I10
tp399
sI405
(I0
I10
tp400
sI406
(I0
I6
tp401
sI407
(I0
I7
tp402
sI408
(I0
I3
tp403
sI409
(I0
I3
tp404
sI410
(I5
I16
tp405
sI411
(I5
I16
tp406
sI412
(I5
I14
tp407
sI413
(I5
I15
tp408
sI414
(I5
I12
tp409
sI415
(I5
I12
tp410
sI416
(I5
I10
tp411
sI417
(I5
I10
tp412
sI418
(I5
I6
tp413
sI419
(I5
I7
tp414
sI420
(I5
I3
tp415
sI421
(I5
I3
tp416
sI422
(I4
I16
tp417
sI423
(I4
I16
tp418
sI424
(I4
I14
tp419
sI425
(I4
I15
tp420
sI426
(I4
I12
tp421
sI427
(I4
I12
tp422
sI428
(I4
I10
tp423
sI429
(I4
I10
tp424
sI430
(I4
I6
tp425
sI431
(I4
I7
tp426
sI432
(I4
I3
tp427
sI433
(I4
I3
tp428
sI434
(I3
I16
tp429
sI435
(I3
I16
tp430
sI436
(I3
I14
tp431
sI437
(I3
I15
tp432
sI438
(I3
I12
tp433
sI439
(I3
I12
tp434
sI440
(I3
I10
tp435
sI441
(I3
I10
tp436
sI442
(I3
I6
tp437
sI443
(I3
I7
tp438
sI444
(I3
I3
tp439
sI445
(I3
I3
tp440
sI446
(I2
I16
tp441
sI447
(I2
I16
tp442
sI448
(I2
I14
tp443
sI449
(I2
I15
tp444
sI450
(I2
I12
tp445
sI451
(I2
I12
tp446
sI452
(I2
I10
tp447
sI453
(I2
I10
tp448
sI454
(I2
I6
tp449
sI455
(I2
I7
tp450
sI456
(I2
I3
tp451
sI457
(I2
I3
tp452
sI458
(I1
I16
tp453
sI459
(I1
I16
tp454
sI460
(I1
I14
tp455
sI461
(I1
I15
tp456
sI462
(I1
I12
tp457
sI463
(I1
I12
tp458
sI464
(I1
I10
tp459
sI465
(I1
I10
tp460
sI466
(I1
I6
tp461
sI467
(I1
I7
tp462
sI468
(I1
I3
tp463
sI469
(I1
I3
tp464
sI471
(I0
I16
tp465
sI472
(I0
I16
tp466
sI473
(I0
I15
tp467
sI474
(I0
I15
tp468
sI475
(I0
I12
tp469
sI476
(I0
I13
tp470
sI477
(I0
I10
tp471
sI478
(I0
I10
tp472
sI479
(I0
I7
tp473
sI480
(I0
I7
tp474
sI481
(I0
I3
tp475
sI482
(I0
I3
tp476
sI484
(I5
I16
tp477
sI485
(I5
I16
tp478
sI486
(I5
I15
tp479
sI487
(I5
I15
tp480
sI488
(I5
I12
tp481
sI489
(I5
I13
tp482
sI490
(I5
I10
tp483
sI491
(I5
I10
tp484
sI492
(I5
I7
tp485
sI493
(I5
I7
tp486
sI494
(I5
I3
tp487
sI495
(I5
I3
tp488
sI497
(I4
I16
tp489
sI498
(I4
I16
tp490
sI499
(I4
I15
tp491
sI500
(I4
I15
tp492
sI501
(I4
I12
tp493
sI502
(I4
I13
tp494
sI503
(I4
I10
tp495
sI504
(I4
I10
tp496
sI505
(I4
I7
tp497
sI506
(I4
I7
tp498
sI507
(I4
I3
tp499
sI508
(I4
I3
tp500
sI510
(I3
I16
tp501
sI511
(I3
I16
tp502
sI512
(I3
I15
tp503
sI513
(I3
I15
tp504
sI514
(I3
I12
tp505
sI515
(I3
I13
tp506
sI516
(I3
I10
tp507
sI517
(I3
I10
tp508
sI518
(I3
I7
tp509
sI519
(I3
I7
tp510
sI520
(I3
I3
tp511
sI521
(I3
I3
tp512
sI523
(I2
I16
tp513
sI524
(I2
I16
tp514
sI525
(I2
I15
tp515
sI526
(I2
I15
tp516
sI527
(I2
I12
tp517
sI528
(I2
I13
tp518
sI529
(I2
I10
tp519
sI530
(I2
I10
tp520
sI531
(I2
I7
tp521
sI532
(I2
I7
tp522
sI533
(I2
I3
tp523
sI534
(I2
I3
tp524
sI536
(I1
I16
tp525
sI537
(I1
I16
tp526
sI538
(I1
I15
tp527
sI539
(I1
I15
tp528
sI540
(I1
I12
tp529
sI541
(I1
I13
tp530
sI542
(I1
I10
tp531
sI543
(I1
I10
tp532
sI544
(I1
I7
tp533
sI545
(I1
I7
tp534
sI546
(I1
I3
tp535
s.